target datalayout = "e-m:e-p270:32:32-p271:32:32-p272:64:64-i64:64-i128:128-f80:128-n8:16:32:64-S128"
target triple = "x86_64-pc-linux-gnu"

%struct.WebPAnimDecoderOptions = type { i32, i32, [7 x i32] }
%struct.WebPBitstreamFeatures = type { i32, i32, i32, i32, i32, [5 x i32] }
%struct.WebPData = type { ptr, i64 }
%struct.WebPAnimDecoder = type { ptr, %struct.WebPDecoderConfig, ptr, %struct.WebPAnimInfo, ptr, ptr, i32, %struct.WebPIterator, i32, i32 }
%struct.WebPDecoderConfig = type { %struct.WebPBitstreamFeatures, %struct.WebPDecBuffer, %struct.WebPDecoderOptions }
%struct.WebPDecBuffer = type { i32, i32, i32, i32, %union.anon, [4 x i32], ptr }
%union.anon = type { %struct.WebPYUVABuffer }
%struct.WebPYUVABuffer = type { ptr, ptr, ptr, ptr, i32, i32, i32, i32, i64, i64, i64, i64 }
%struct.WebPDecoderOptions = type { i32, i32, i32, i32, i32, i32, i32, i32, i32, i32, i32, i32, i32, i32, [5 x i32] }
%struct.WebPAnimInfo = type { i32, i32, i32, i32, i32, [4 x i32] }
%struct.WebPIterator = type { i32, i32, i32, i32, i32, i32, i32, i32, i32, %struct.WebPData, i32, i32, [2 x i32], ptr }

; Function Attrs: inlinehint nounwind uwtable
define internal i32 @WebPInitDecoderConfig(ptr noundef %0) #2 {
  %2 = alloca ptr, align 8
  store ptr %0, ptr %2, align 8, !tbaa !44
  %3 = load ptr, ptr %2, align 8, !tbaa !44
  %4 = call i32 @WebPInitDecoderConfigInternal(ptr noundef %3, i32 noundef 528)
  ret i32 %4
}

; Function Attrs: nounwind uwtable
define void @WebPAnimDecoderDelete(ptr noundef %0) #0 {
  %2 = alloca ptr, align 8
  store ptr %0, ptr %2, align 8, !tbaa !15
  %3 = load ptr, ptr %2, align 8, !tbaa !15
  %4 = icmp ne ptr %3, null
  br i1 %4, label %5, label %18

5:                                                ; preds = %1
  %6 = load ptr, ptr %2, align 8, !tbaa !15
  %7 = getelementptr inbounds nuw %struct.WebPAnimDecoder, ptr %6, i32 0, i32 7
  call void @WebPDemuxReleaseIterator(ptr noundef %7)
  %8 = load ptr, ptr %2, align 8, !tbaa !15
  %9 = getelementptr inbounds nuw %struct.WebPAnimDecoder, ptr %8, i32 0, i32 0
  %10 = load ptr, ptr %9, align 8, !tbaa !24
  call void @WebPDemuxDelete(ptr noundef %10)
  %11 = load ptr, ptr %2, align 8, !tbaa !15
  %12 = getelementptr inbounds nuw %struct.WebPAnimDecoder, ptr %11, i32 0, i32 4
  %13 = load ptr, ptr %12, align 8, !tbaa !38
  call void @WebPSafeFree(ptr noundef %13)
  %14 = load ptr, ptr %2, align 8, !tbaa !15
  %15 = getelementptr inbounds nuw %struct.WebPAnimDecoder, ptr %14, i32 0, i32 5
  %16 = load ptr, ptr %15, align 8, !tbaa !39
  call void @WebPSafeFree(ptr noundef %16)
  %17 = load ptr, ptr %2, align 8, !tbaa !15
  call void @WebPSafeFree(ptr noundef %17)
  br label %18

18:                                               ; preds = %5, %1
  ret void
}

; Function Attrs: nounwind uwtable
define void @WebPAnimDecoderReset(ptr noundef %0) #0 {
  %2 = alloca ptr, align 8
  store ptr %0, ptr %2, align 8, !tbaa !15
  %3 = load ptr, ptr %2, align 8, !tbaa !15
  %4 = icmp ne ptr %3, null
  br i1 %4, label %5, label %16

5:                                                ; preds = %1
  %6 = load ptr, ptr %2, align 8, !tbaa !15
  %7 = getelementptr inbounds nuw %struct.WebPAnimDecoder, ptr %6, i32 0, i32 6
  store i32 0, ptr %7, align 8, !tbaa !50
  %8 = load ptr, ptr %2, align 8, !tbaa !15
  %9 = getelementptr inbounds nuw %struct.WebPAnimDecoder, ptr %8, i32 0, i32 7
  call void @WebPDemuxReleaseIterator(ptr noundef %9)
  %10 = load ptr, ptr %2, align 8, !tbaa !15
  %11 = getelementptr inbounds nuw %struct.WebPAnimDecoder, ptr %10, i32 0, i32 7
  call void @llvm.memset.p0.i64(ptr align 8 %11, i8 0, i64 80, i1 false)
  %12 = load ptr, ptr %2, align 8, !tbaa !15
  %13 = getelementptr inbounds nuw %struct.WebPAnimDecoder, ptr %12, i32 0, i32 8
  store i32 0, ptr %13, align 8, !tbaa !51
  %14 = load ptr, ptr %2, align 8, !tbaa !15
  %15 = getelementptr inbounds nuw %struct.WebPAnimDecoder, ptr %14, i32 0, i32 9
  store i32 1, ptr %15, align 4, !tbaa !52
  br label %16

16:                                               ; preds = %5, %1
  ret void
}

; Function Attrs: inlinehint nounwind uwtable
define internal ptr @WebPDemux(ptr noundef %0) #2 {
  %2 = alloca ptr, align 8
  store ptr %0, ptr %2, align 8, !tbaa !13
  %3 = load ptr, ptr %2, align 8, !tbaa !13
  %4 = call ptr @WebPDemuxInternal(ptr noundef %3, i32 noundef 0, ptr noundef null, i32 noundef 263)
  ret ptr %4
}

; Function Attrs: nounwind uwtable
define internal i32 @ApplyDecoderOptions(ptr noundef %0, ptr noundef %1) #0 {
  %3 = alloca i32, align 4
  %4 = alloca ptr, align 8
  %5 = alloca ptr, align 8
  %6 = alloca i32, align 4
  %7 = alloca ptr, align 8
  %8 = alloca i32, align 4
  store ptr %0, ptr %4, align 8, !tbaa !3
  store ptr %1, ptr %5, align 8, !tbaa !15
  call void @llvm.lifetime.start.p0(i64 4, ptr %6) #6
  call void @llvm.lifetime.start.p0(i64 8, ptr %7) #6
  %9 = load ptr, ptr %5, align 8, !tbaa !15
  %10 = getelementptr inbounds nuw %struct.WebPAnimDecoder, ptr %9, i32 0, i32 1
  store ptr %10, ptr %7, align 8, !tbaa !44
  %11 = load ptr, ptr %4, align 8, !tbaa !3
  %12 = getelementptr inbounds nuw %struct.WebPAnimDecoderOptions, ptr %11, i32 0, i32 0
  %13 = load i32, ptr %12, align 4, !tbaa !10
  store i32 %13, ptr %6, align 4, !tbaa !8
  %14 = load i32, ptr %6, align 4, !tbaa !8
  %15 = icmp ne i32 %14, 1
  br i1 %15, label %16, label %26

16:                                               ; preds = %2
  %17 = load i32, ptr %6, align 4, !tbaa !8
  %18 = icmp ne i32 %17, 3
  br i1 %18, label %19, label %26

19:                                               ; preds = %16
  %20 = load i32, ptr %6, align 4, !tbaa !8
  %21 = icmp ne i32 %20, 7
  br i1 %21, label %22, label %26

22:                                               ; preds = %19
  %23 = load i32, ptr %6, align 4, !tbaa !8
  %24 = icmp ne i32 %23, 8
  br i1 %24, label %25, label %26

25:                                               ; preds = %22
  store i32 0, ptr %3, align 4
  store i32 1, ptr %8, align 4
  br label %55

26:                                               ; preds = %22, %19, %16, %2
  %27 = load i32, ptr %6, align 4, !tbaa !8
  %28 = icmp eq i32 %27, 1
  br i1 %28, label %32, label %29

29:                                               ; preds = %26
  %30 = load i32, ptr %6, align 4, !tbaa !8
  %31 = icmp eq i32 %30, 3
  br label %32

32:                                               ; preds = %29, %26
  %33 = phi i1 [ true, %26 ], [ %31, %29 ]
  %34 = select i1 %33, ptr @BlendPixelRowNonPremult, ptr @BlendPixelRowPremult
  %35 = load ptr, ptr %5, align 8, !tbaa !15
  %36 = getelementptr inbounds nuw %struct.WebPAnimDecoder, ptr %35, i32 0, i32 2
  store ptr %34, ptr %36, align 8, !tbaa !46
  %37 = load ptr, ptr %7, align 8, !tbaa !44
  %38 = call i32 @WebPInitDecoderConfig(ptr noundef %37)
  %39 = icmp ne i32 %38, 0
  br i1 %39, label %41, label %40

40:                                               ; preds = %32
  store i32 0, ptr %3, align 4
  store i32 1, ptr %8, align 4
  br label %55

41:                                               ; preds = %32
  %42 = load i32, ptr %6, align 4, !tbaa !8
  %43 = load ptr, ptr %7, align 8, !tbaa !44
  %44 = getelementptr inbounds nuw %struct.WebPDecoderConfig, ptr %43, i32 0, i32 1
  %45 = getelementptr inbounds nuw %struct.WebPDecBuffer, ptr %44, i32 0, i32 0
  store i32 %42, ptr %45, align 8, !tbaa !47
  %46 = load ptr, ptr %7, align 8, !tbaa !44
  %47 = getelementptr inbounds nuw %struct.WebPDecoderConfig, ptr %46, i32 0, i32 1
  %48 = getelementptr inbounds nuw %struct.WebPDecBuffer, ptr %47, i32 0, i32 3
  store i32 1, ptr %48, align 4, !tbaa !48
  %49 = load ptr, ptr %4, align 8, !tbaa !3
  %50 = getelementptr inbounds nuw %struct.WebPAnimDecoderOptions, ptr %49, i32 0, i32 1
  %51 = load i32, ptr %50, align 4, !tbaa !12
  %52 = load ptr, ptr %7, align 8, !tbaa !44
  %53 = getelementptr inbounds nuw %struct.WebPDecoderConfig, ptr %52, i32 0, i32 2
  %54 = getelementptr inbounds nuw %struct.WebPDecoderOptions, ptr %53, i32 0, i32 10
  store i32 %51, ptr %54, align 8, !tbaa !49
  store i32 1, ptr %3, align 4
  store i32 1, ptr %8, align 4
  br label %55

55:                                               ; preds = %41, %40, %25
  call void @llvm.lifetime.end.p0(i64 8, ptr %7) #6
  call void @llvm.lifetime.end.p0(i64 4, ptr %6) #6
  %56 = load i32, ptr %3, align 4
  ret i32 %56
}

; Function Attrs: nounwind uwtable
define internal void @DefaultDecoderOptions(ptr noundef %0) #0 {
  %2 = alloca ptr, align 8
  store ptr %0, ptr %2, align 8, !tbaa !3
  %3 = load ptr, ptr %2, align 8, !tbaa !3
  %4 = getelementptr inbounds nuw %struct.WebPAnimDecoderOptions, ptr %3, i32 0, i32 0
  store i32 1, ptr %4, align 4, !tbaa !10
  %5 = load ptr, ptr %2, align 8, !tbaa !3
  %6 = getelementptr inbounds nuw %struct.WebPAnimDecoderOptions, ptr %5, i32 0, i32 1
  store i32 0, ptr %6, align 4, !tbaa !12
  ret void
}

; Function Attrs: inlinehint nounwind uwtable
define internal i32 @WebPGetFeatures(ptr noundef %0, i64 noundef %1, ptr noundef %2) #2 {
  %4 = alloca ptr, align 8
  %5 = alloca i64, align 8
  %6 = alloca ptr, align 8
  store ptr %0, ptr %4, align 8, !tbaa !40
  store i64 %1, ptr %5, align 8, !tbaa !41
  store ptr %2, ptr %6, align 8, !tbaa !42
  %7 = load ptr, ptr %4, align 8, !tbaa !40
  %8 = load i64, ptr %5, align 8, !tbaa !41
  %9 = load ptr, ptr %6, align 8, !tbaa !42
  %10 = call i32 @WebPGetFeaturesInternal(ptr noundef %7, i64 noundef %8, ptr noundef %9, i32 noundef 528)
  ret i32 %10
}

; Function Attrs: nounwind uwtable
define ptr @WebPAnimDecoderNewInternal(ptr noundef %0, ptr noundef %1, i32 noundef %2) #0 {
  %4 = alloca ptr, align 8
  %5 = alloca ptr, align 8
  %6 = alloca ptr, align 8
  %7 = alloca i32, align 4
  %8 = alloca %struct.WebPAnimDecoderOptions, align 4
  %9 = alloca ptr, align 8
  %10 = alloca %struct.WebPBitstreamFeatures, align 4
  %11 = alloca i32, align 4
  store ptr %0, ptr %5, align 8, !tbaa !13
  store ptr %1, ptr %6, align 8, !tbaa !3
  store i32 %2, ptr %7, align 4, !tbaa !8
  call void @llvm.lifetime.start.p0(i64 36, ptr %8) #6
  call void @llvm.lifetime.start.p0(i64 8, ptr %9) #6
  store ptr null, ptr %9, align 8, !tbaa !15
  call void @llvm.lifetime.start.p0(i64 40, ptr %10) #6
  %12 = load ptr, ptr %5, align 8, !tbaa !13
  %13 = icmp eq ptr %12, null
  br i1 %13, label %18, label %14

14:                                               ; preds = %3
  %15 = load i32, ptr %7, align 4, !tbaa !8
  %16 = ashr i32 %15, 8
  %17 = icmp ne i32 %16, 1
  br i1 %17, label %18, label %19

18:                                               ; preds = %14, %3
  store ptr null, ptr %4, align 8
  store i32 1, ptr %11, align 4
  br label %135

19:                                               ; preds = %14
  %20 = load ptr, ptr %5, align 8, !tbaa !13
  %21 = getelementptr inbounds nuw %struct.WebPData, ptr %20, i32 0, i32 0
  %22 = load ptr, ptr %21, align 8, !tbaa !17
  %23 = load ptr, ptr %5, align 8, !tbaa !13
  %24 = getelementptr inbounds nuw %struct.WebPData, ptr %23, i32 0, i32 1
  %25 = load i64, ptr %24, align 8, !tbaa !21
  %26 = call i32 @WebPGetFeatures(ptr noundef %22, i64 noundef %25, ptr noundef %10)
  %27 = icmp ne i32 %26, 0
  br i1 %27, label %28, label %29

28:                                               ; preds = %19
  store ptr null, ptr %4, align 8
  store i32 1, ptr %11, align 4
  br label %135

29:                                               ; preds = %19
  %30 = call ptr @WebPSafeCalloc(i64 noundef 1, i64 noundef 408)
  store ptr %30, ptr %9, align 8, !tbaa !15
  %31 = load ptr, ptr %9, align 8, !tbaa !15
  %32 = icmp eq ptr %31, null
  br i1 %32, label %33, label %34

33:                                               ; preds = %29
  br label %133

34:                                               ; preds = %29
  %35 = load ptr, ptr %6, align 8, !tbaa !3
  %36 = icmp ne ptr %35, null
  br i1 %36, label %37, label %39

37:                                               ; preds = %34
  %38 = load ptr, ptr %6, align 8, !tbaa !3
  call void @llvm.memcpy.p0.p0.i64(ptr align 4 %8, ptr align 4 %38, i64 36, i1 false), !tbaa.struct !22
  br label %40

39:                                               ; preds = %34
  call void @DefaultDecoderOptions(ptr noundef %8)
  br label %40

40:                                               ; preds = %39, %37
  %41 = load ptr, ptr %9, align 8, !tbaa !15
  %42 = call i32 @ApplyDecoderOptions(ptr noundef %8, ptr noundef %41)
  %43 = icmp ne i32 %42, 0
  br i1 %43, label %45, label %44

44:                                               ; preds = %40
  br label %133

45:                                               ; preds = %40
  %46 = load ptr, ptr %5, align 8, !tbaa !13
  %47 = call ptr @WebPDemux(ptr noundef %46)
  %48 = load ptr, ptr %9, align 8, !tbaa !15
  %49 = getelementptr inbounds nuw %struct.WebPAnimDecoder, ptr %48, i32 0, i32 0
  store ptr %47, ptr %49, align 8, !tbaa !24
  %50 = load ptr, ptr %9, align 8, !tbaa !15
  %51 = getelementptr inbounds nuw %struct.WebPAnimDecoder, ptr %50, i32 0, i32 0
  %52 = load ptr, ptr %51, align 8, !tbaa !24
  %53 = icmp eq ptr %52, null
  br i1 %53, label %54, label %55

54:                                               ; preds = %45
  br label %133

55:                                               ; preds = %45
  %56 = load ptr, ptr %9, align 8, !tbaa !15
  %57 = getelementptr inbounds nuw %struct.WebPAnimDecoder, ptr %56, i32 0, i32 0
  %58 = load ptr, ptr %57, align 8, !tbaa !24
  %59 = call i32 @WebPDemuxGetI(ptr noundef %58, i32 noundef 1)
  %60 = load ptr, ptr %9, align 8, !tbaa !15
  %61 = getelementptr inbounds nuw %struct.WebPAnimDecoder, ptr %60, i32 0, i32 3
  %62 = getelementptr inbounds nuw %struct.WebPAnimInfo, ptr %61, i32 0, i32 0
  store i32 %59, ptr %62, align 8, !tbaa !33
  %63 = load ptr, ptr %9, align 8, !tbaa !15
  %64 = getelementptr inbounds nuw %struct.WebPAnimDecoder, ptr %63, i32 0, i32 0
  %65 = load ptr, ptr %64, align 8, !tbaa !24
  %66 = call i32 @WebPDemuxGetI(ptr noundef %65, i32 noundef 2)
  %67 = load ptr, ptr %9, align 8, !tbaa !15
  %68 = getelementptr inbounds nuw %struct.WebPAnimDecoder, ptr %67, i32 0, i32 3
  %69 = getelementptr inbounds nuw %struct.WebPAnimInfo, ptr %68, i32 0, i32 1
  store i32 %66, ptr %69, align 4, !tbaa !34
  %70 = load ptr, ptr %9, align 8, !tbaa !15
  %71 = getelementptr inbounds nuw %struct.WebPAnimDecoder, ptr %70, i32 0, i32 0
  %72 = load ptr, ptr %71, align 8, !tbaa !24
  %73 = call i32 @WebPDemuxGetI(ptr noundef %72, i32 noundef 3)
  %74 = load ptr, ptr %9, align 8, !tbaa !15
  %75 = getelementptr inbounds nuw %struct.WebPAnimDecoder, ptr %74, i32 0, i32 3
  %76 = getelementptr inbounds nuw %struct.WebPAnimInfo, ptr %75, i32 0, i32 2
  store i32 %73, ptr %76, align 8, !tbaa !35
  %77 = load ptr, ptr %9, align 8, !tbaa !15
  %78 = getelementptr inbounds nuw %struct.WebPAnimDecoder, ptr %77, i32 0, i32 0
  %79 = load ptr, ptr %78, align 8, !tbaa !24
  %80 = call i32 @WebPDemuxGetI(ptr noundef %79, i32 noundef 4)
  %81 = load ptr, ptr %9, align 8, !tbaa !15
  %82 = getelementptr inbounds nuw %struct.WebPAnimDecoder, ptr %81, i32 0, i32 3
  %83 = getelementptr inbounds nuw %struct.WebPAnimInfo, ptr %82, i32 0, i32 3
  store i32 %80, ptr %83, align 4, !tbaa !36
  %84 = load ptr, ptr %9, align 8, !tbaa !15
  %85 = getelementptr inbounds nuw %struct.WebPAnimDecoder, ptr %84, i32 0, i32 0
  %86 = load ptr, ptr %85, align 8, !tbaa !24
  %87 = call i32 @WebPDemuxGetI(ptr noundef %86, i32 noundef 5)
  %88 = load ptr, ptr %9, align 8, !tbaa !15
  %89 = getelementptr inbounds nuw %struct.WebPAnimDecoder, ptr %88, i32 0, i32 3
  %90 = getelementptr inbounds nuw %struct.WebPAnimInfo, ptr %89, i32 0, i32 4
  store i32 %87, ptr %90, align 8, !tbaa !37
  %91 = load ptr, ptr %9, align 8, !tbaa !15
  %92 = getelementptr inbounds nuw %struct.WebPAnimDecoder, ptr %91, i32 0, i32 3
  %93 = getelementptr inbounds nuw %struct.WebPAnimInfo, ptr %92, i32 0, i32 0
  %94 = load i32, ptr %93, align 8, !tbaa !33
  %95 = mul i32 %94, 4
  %96 = zext i32 %95 to i64
  %97 = load ptr, ptr %9, align 8, !tbaa !15
  %98 = getelementptr inbounds nuw %struct.WebPAnimDecoder, ptr %97, i32 0, i32 3
  %99 = getelementptr inbounds nuw %struct.WebPAnimInfo, ptr %98, i32 0, i32 1
  %100 = load i32, ptr %99, align 4, !tbaa !34
  %101 = zext i32 %100 to i64
  %102 = call ptr @WebPSafeCalloc(i64 noundef %96, i64 noundef %101)
  %103 = load ptr, ptr %9, align 8, !tbaa !15
  %104 = getelementptr inbounds nuw %struct.WebPAnimDecoder, ptr %103, i32 0, i32 4
  store ptr %102, ptr %104, align 8, !tbaa !38
  %105 = load ptr, ptr %9, align 8, !tbaa !15
  %106 = getelementptr inbounds nuw %struct.WebPAnimDecoder, ptr %105, i32 0, i32 4
  %107 = load ptr, ptr %106, align 8, !tbaa !38
  %108 = icmp eq ptr %107, null
  br i1 %108, label %109, label %110

109:                                              ; preds = %55
  br label %133

110:                                              ; preds = %55
  %111 = load ptr, ptr %9, align 8, !tbaa !15
  %112 = getelementptr inbounds nuw %struct.WebPAnimDecoder, ptr %111, i32 0, i32 3
  %113 = getelementptr inbounds nuw %struct.WebPAnimInfo, ptr %112, i32 0, i32 0
  %114 = load i32, ptr %113, align 8, !tbaa !33
  %115 = mul i32 %114, 4
  %116 = zext i32 %115 to i64
  %117 = load ptr, ptr %9, align 8, !tbaa !15
  %118 = getelementptr inbounds nuw %struct.WebPAnimDecoder, ptr %117, i32 0, i32 3
  %119 = getelementptr inbounds nuw %struct.WebPAnimInfo, ptr %118, i32 0, i32 1
  %120 = load i32, ptr %119, align 4, !tbaa !34
  %121 = zext i32 %120 to i64
  %122 = call ptr @WebPSafeCalloc(i64 noundef %116, i64 noundef %121)
  %123 = load ptr, ptr %9, align 8, !tbaa !15
  %124 = getelementptr inbounds nuw %struct.WebPAnimDecoder, ptr %123, i32 0, i32 5
  store ptr %122, ptr %124, align 8, !tbaa !39
  %125 = load ptr, ptr %9, align 8, !tbaa !15
  %126 = getelementptr inbounds nuw %struct.WebPAnimDecoder, ptr %125, i32 0, i32 5
  %127 = load ptr, ptr %126, align 8, !tbaa !39
  %128 = icmp eq ptr %127, null
  br i1 %128, label %129, label %130

129:                                              ; preds = %110
  br label %133

130:                                              ; preds = %110
  %131 = load ptr, ptr %9, align 8, !tbaa !15
  call void @WebPAnimDecoderReset(ptr noundef %131)
  %132 = load ptr, ptr %9, align 8, !tbaa !15
  store ptr %132, ptr %4, align 8
  store i32 1, ptr %11, align 4
  br label %135

133:                                              ; preds = %129, %109, %54, %44, %33
  %134 = load ptr, ptr %9, align 8, !tbaa !15
  call void @WebPAnimDecoderDelete(ptr noundef %134)
  store ptr null, ptr %4, align 8
  store i32 1, ptr %11, align 4
  br label %135

135:                                              ; preds = %133, %130, %28, %18
  call void @llvm.lifetime.end.p0(i64 40, ptr %10) #6
  call void @llvm.lifetime.end.p0(i64 8, ptr %9) #6
  call void @llvm.lifetime.end.p0(i64 36, ptr %8) #6
  %136 = load ptr, ptr %4, align 8
  ret ptr %136
}