; Function Attrs: nounwind uwtable
define ptr @WebPAnimDecoderNewInternal(ptr noundef %0, ptr noundef readonly captures(address_is_null) %1, i32 noundef %2) local_unnamed_addr #1 {
  %4 = alloca %struct.WebPBitstreamFeatures, align 4
  call void @llvm.lifetime.start.p0(i64 40, ptr nonnull %4) #9
  %5 = icmp ne ptr %0, null
  %.mask = and i32 %2, -256
  %.not = icmp eq i32 %.mask, 256
  %or.cond = and i1 %5, %.not
  br i1 %or.cond, label %6, label %WebPAnimDecoderDelete.exit

6:                                                ; preds = %3
  %7 = load ptr, ptr %0, align 8, !tbaa !9
  %8 = getelementptr inbounds nuw i8, ptr %0, i64 8
  %9 = load i64, ptr %8, align 8, !tbaa !14
  %10 = call i32 @WebPGetFeaturesInternal(ptr noundef %7, i64 noundef %9, ptr noundef nonnull %4, i32 noundef 528) #9
  %.not36 = icmp eq i32 %10, 0
  br i1 %.not36, label %11, label %WebPAnimDecoderDelete.exit

11:                                               ; preds = %6
  %12 = call ptr @WebPSafeCalloc(i64 noundef 1, i64 noundef 408) #9
  %13 = icmp eq ptr %12, null
  br i1 %13, label %WebPAnimDecoderDelete.exit, label %14

14:                                               ; preds = %11
  %.not37 = icmp eq ptr %1, null
  br i1 %.not37, label %.thread, label %15

15:                                               ; preds = %14
  %.sroa.0.0.copyload = load i32, ptr %1, align 4, !tbaa !15
  %.sroa.5.0..sroa_idx = getelementptr inbounds nuw i8, ptr %1, i64 4
  %.sroa.5.0.copyload = load i32, ptr %.sroa.5.0..sroa_idx, align 4, !tbaa !15
  switch i32 %.sroa.0.0.copyload, label %ApplyDecoderOptions.exit.thread [
    i32 8, label %.thread
    i32 7, label %.thread
    i32 3, label %.thread
    i32 1, label %.thread
  ]

.thread:                                          ; preds = %14, %15, %15, %15, %15
  %.sroa.0.045 = phi i32 [ %.sroa.0.0.copyload, %15 ], [ %.sroa.0.0.copyload, %15 ], [ %.sroa.0.0.copyload, %15 ], [ %.sroa.0.0.copyload, %15 ], [ 1, %14 ]
  %.sroa.5.044 = phi i32 [ %.sroa.5.0.copyload, %15 ], [ %.sroa.5.0.copyload, %15 ], [ %.sroa.5.0.copyload, %15 ], [ %.sroa.5.0.copyload, %15 ], [ 0, %14 ]
  %16 = getelementptr inbounds nuw i8, ptr %12, i64 8
  %17 = and i32 %.sroa.0.045, 13
  %18 = icmp eq i32 %17, 1
  %19 = select i1 %18, ptr @BlendPixelRowNonPremult, ptr @BlendPixelRowPremult
  %20 = getelementptr inbounds nuw i8, ptr %12, i64 248
  store ptr %19, ptr %20, align 8, !tbaa !16
  %21 = call i32 @WebPInitDecoderConfigInternal(ptr noundef nonnull %16, i32 noundef 528) #9
  %.not.i = icmp eq i32 %21, 0
  br i1 %.not.i, label %ApplyDecoderOptions.exit.thread, label %22

22:                                               ; preds = %.thread
  %23 = getelementptr inbounds nuw i8, ptr %12, i64 48
  store i32 %.sroa.0.045, ptr %23, align 8, !tbaa !25
  %24 = getelementptr inbounds nuw i8, ptr %12, i64 60
  store i32 1, ptr %24, align 4, !tbaa !26
  %25 = getelementptr inbounds nuw i8, ptr %12, i64 208
  store i32 %.sroa.5.044, ptr %25, align 8, !tbaa !27
  %26 = call ptr @WebPDemuxInternal(ptr noundef nonnull %0, i32 noundef 0, ptr noundef null, i32 noundef 263) #9
  store ptr %26, ptr %12, align 8, !tbaa !28
  %27 = icmp eq ptr %26, null
  br i1 %27, label %ApplyDecoderOptions.exit.thread, label %28

28:                                               ; preds = %22
  %29 = call i32 @WebPDemuxGetI(ptr noundef nonnull %26, i32 noundef 1) #9
  %30 = getelementptr inbounds nuw i8, ptr %12, i64 256
  store i32 %29, ptr %30, align 8, !tbaa !29
  %31 = load ptr, ptr %12, align 8, !tbaa !28
  %32 = call i32 @WebPDemuxGetI(ptr noundef %31, i32 noundef 2) #9
  %33 = getelementptr inbounds nuw i8, ptr %12, i64 260
  store i32 %32, ptr %33, align 4, !tbaa !30
  %34 = load ptr, ptr %12, align 8, !tbaa !28
  %35 = call i32 @WebPDemuxGetI(ptr noundef %34, i32 noundef 3) #9
  %36 = getelementptr inbounds nuw i8, ptr %12, i64 264
  store i32 %35, ptr %36, align 8, !tbaa !31
  %37 = load ptr, ptr %12, align 8, !tbaa !28
  %38 = call i32 @WebPDemuxGetI(ptr noundef %37, i32 noundef 4) #9
  %39 = getelementptr inbounds nuw i8, ptr %12, i64 268
  store i32 %38, ptr %39, align 4, !tbaa !32
  %40 = load ptr, ptr %12, align 8, !tbaa !28
  %41 = call i32 @WebPDemuxGetI(ptr noundef %40, i32 noundef 5) #9
  %42 = getelementptr inbounds nuw i8, ptr %12, i64 272
  store i32 %41, ptr %42, align 8, !tbaa !33
  %43 = load i32, ptr %30, align 8, !tbaa !29
  %44 = shl i32 %43, 2
  %45 = zext i32 %44 to i64
  %46 = load i32, ptr %33, align 4, !tbaa !30
  %47 = zext i32 %46 to i64
  %48 = call ptr @WebPSafeCalloc(i64 noundef %45, i64 noundef %47) #9
  %49 = getelementptr inbounds nuw i8, ptr %12, i64 296
  store ptr %48, ptr %49, align 8, !tbaa !34
  %50 = icmp eq ptr %48, null
  br i1 %50, label %ApplyDecoderOptions.exit.thread, label %51

51:                                               ; preds = %28
  %52 = load i32, ptr %30, align 8, !tbaa !29
  %53 = shl i32 %52, 2
  %54 = zext i32 %53 to i64
  %55 = load i32, ptr %33, align 4, !tbaa !30
  %56 = zext i32 %55 to i64
  %57 = call ptr @WebPSafeCalloc(i64 noundef %54, i64 noundef %56) #9
  %58 = getelementptr inbounds nuw i8, ptr %12, i64 304
  store ptr %57, ptr %58, align 8, !tbaa !35
  %59 = icmp eq ptr %57, null
  br i1 %59, label %ApplyDecoderOptions.exit.thread, label %WebPAnimDecoderReset.exit

WebPAnimDecoderReset.exit:                        ; preds = %51
  %60 = getelementptr inbounds nuw i8, ptr %12, i64 312
  store i32 0, ptr %60, align 8, !tbaa !36
  %61 = getelementptr inbounds nuw i8, ptr %12, i64 320
  call void @WebPDemuxReleaseIterator(ptr noundef nonnull %61) #9
  %62 = getelementptr inbounds nuw i8, ptr %12, i64 404
  call void @llvm.memset.p0.i64(ptr noundef nonnull align 8 dereferenceable(84) %61, i8 0, i64 84, i1 false)
  store i32 1, ptr %62, align 4, !tbaa !37
  br label %WebPAnimDecoderDelete.exit

ApplyDecoderOptions.exit.thread:                  ; preds = %.thread, %15, %51, %28, %22
  %63 = getelementptr inbounds nuw i8, ptr %12, i64 320
  call void @WebPDemuxReleaseIterator(ptr noundef nonnull %63) #9
  %64 = load ptr, ptr %12, align 8, !tbaa !28
  call void @WebPDemuxDelete(ptr noundef %64) #9
  %65 = getelementptr inbounds nuw i8, ptr %12, i64 296
  %66 = load ptr, ptr %65, align 8, !tbaa !34
  call void @WebPSafeFree(ptr noundef %66) #9
  %67 = getelementptr inbounds nuw i8, ptr %12, i64 304
  %68 = load ptr, ptr %67, align 8, !tbaa !35
  call void @WebPSafeFree(ptr noundef %68) #9
  call void @WebPSafeFree(ptr noundef nonnull %12) #9
  br label %WebPAnimDecoderDelete.exit

WebPAnimDecoderDelete.exit:                       ; preds = %ApplyDecoderOptions.exit.thread, %11, %6, %3, %WebPAnimDecoderReset.exit
  %.0 = phi ptr [ %12, %WebPAnimDecoderReset.exit ], [ null, %3 ], [ null, %6 ], [ null, %11 ], [ null, %ApplyDecoderOptions.exit.thread ]
  call void @llvm.lifetime.end.p0(i64 40, ptr nonnull %4) #9
  ret ptr %.0
}